target datalayout = "e-m:e-p270:32:32-p271:32:32-p272:64:64-i64:64-i128:128-f80:128-n8:16:32:64-S128"
target triple = "x86_64-pc-linux-gnu"

%class.Register = type { i32 }
%class.XMMRegister = type { i32 }
%class.StubCodeMark = type { ptr, ptr }
%class.StubCodeGenerator = type { ptr, i8, ptr }
%class.CodeSection = type { ptr, ptr, ptr, ptr, ptr, ptr, ptr, ptr, i8, i8, i32, i8, ptr }
%class.AbstractAssembler = type { ptr, ptr, ptr }

@.str = private unnamed_addr constant [13 x i8] c"StubRoutines\00", align 1
@_ZL3rax = internal constant %class.Register zeroinitializer, align 4
@_ZL4xmm0 = internal constant %class.XMMRegister zeroinitializer, align 4
@_ZL4xmm1 = internal constant %class.XMMRegister { i32 1 }, align 4
@.str.52 = private unnamed_addr constant [15 x i8] c"floatToFloat16\00", align 1

; Function Attrs: mustprogress nounwind uwtable
define linkonce_odr hidden noundef ptr @_ZNK11CodeSection3endEv(ptr noundef nonnull align 8 dereferenceable(88) %0) #1 comdat align 2 {
  %2 = alloca ptr, align 8
  store ptr %0, ptr %2, align 8
  %3 = load ptr, ptr %2, align 8
  %4 = getelementptr inbounds %class.CodeSection, ptr %3, i32 0, i32 2
  %5 = load ptr, ptr %4, align 8
  ret ptr %5
}

; Function Attrs: mustprogress nounwind uwtable
define linkonce_odr hidden noundef ptr @_ZNK17AbstractAssembler12code_sectionEv(ptr noundef nonnull align 8 dereferenceable(24) %0) #1 comdat align 2 {
  %2 = alloca ptr, align 8
  store ptr %0, ptr %2, align 8
  %3 = load ptr, ptr %2, align 8
  %4 = getelementptr inbounds %class.AbstractAssembler, ptr %3, i32 0, i32 1
  %5 = load ptr, ptr %4, align 8
  ret ptr %5
}

; Function Attrs: mustprogress nounwind uwtable
define linkonce_odr hidden void @_ZN14MacroAssembler12flt_to_flt16E8Register11XMMRegisterS1_(ptr noundef nonnull align 8 dereferenceable(40) %0, i32 %1, i32 %2, i32 %3) #1 comdat align 2 {
  %5 = alloca %class.Register, align 4
  %6 = alloca %class.XMMRegister, align 4
  %7 = alloca %class.XMMRegister, align 4
  %8 = alloca ptr, align 8
  %9 = alloca %class.XMMRegister, align 4
  %10 = alloca %class.XMMRegister, align 4
  %11 = alloca %class.Register, align 4
  %12 = alloca %class.XMMRegister, align 4
  %13 = alloca %class.Register, align 4
  %14 = alloca %class.Register, align 4
  %15 = getelementptr inbounds %class.Register, ptr %5, i32 0, i32 0
  store i32 %1, ptr %15, align 4
  %16 = getelementptr inbounds %class.XMMRegister, ptr %6, i32 0, i32 0
  store i32 %2, ptr %16, align 4
  %17 = getelementptr inbounds %class.XMMRegister, ptr %7, i32 0, i32 0
  store i32 %3, ptr %17, align 4
  store ptr %0, ptr %8, align 8
  %18 = load ptr, ptr %8, align 8
  call void @llvm.memcpy.p0.p0.i64(ptr align 4 %9, ptr align 4 %7, i64 4, i1 false)
  call void @llvm.memcpy.p0.p0.i64(ptr align 4 %10, ptr align 4 %6, i64 4, i1 false)
  %19 = getelementptr inbounds %class.XMMRegister, ptr %9, i32 0, i32 0
  %20 = load i32, ptr %19, align 4
  %21 = getelementptr inbounds %class.XMMRegister, ptr %10, i32 0, i32 0
  %22 = load i32, ptr %21, align 4
  call void @_ZN9Assembler9vcvtps2phE11XMMRegisterS0_ii(ptr noundef nonnull align 8 dereferenceable(40) %18, i32 %20, i32 %22, i32 noundef 4, i32 noundef 0)
  call void @llvm.memcpy.p0.p0.i64(ptr align 4 %11, ptr align 4 %5, i64 4, i1 false)
  call void @llvm.memcpy.p0.p0.i64(ptr align 4 %12, ptr align 4 %7, i64 4, i1 false)
  %23 = getelementptr inbounds %class.Register, ptr %11, i32 0, i32 0
  %24 = load i32, ptr %23, align 4
  %25 = getelementptr inbounds %class.XMMRegister, ptr %12, i32 0, i32 0
  %26 = load i32, ptr %25, align 4
  call void @_ZN9Assembler5movdlE8Register11XMMRegister(ptr noundef nonnull align 8 dereferenceable(40) %18, i32 %24, i32 %26)
  call void @llvm.memcpy.p0.p0.i64(ptr align 4 %13, ptr align 4 %5, i64 4, i1 false)
  call void @llvm.memcpy.p0.p0.i64(ptr align 4 %14, ptr align 4 %5, i64 4, i1 false)
  %27 = getelementptr inbounds %class.Register, ptr %13, i32 0, i32 0
  %28 = load i32, ptr %27, align 4
  %29 = getelementptr inbounds %class.Register, ptr %14, i32 0, i32 0
  %30 = load i32, ptr %29, align 4
  call void @_ZN9Assembler6movswlE8RegisterS0_(ptr noundef nonnull align 8 dereferenceable(40) %18, i32 %28, i32 %30)
  ret void
}

; Function Attrs: mustprogress nounwind uwtable
define linkonce_odr hidden noundef ptr @_ZNK17AbstractAssembler2pcEv(ptr noundef nonnull align 8 dereferenceable(24) %0) #1 comdat align 2 {
  %2 = alloca ptr, align 8
  store ptr %0, ptr %2, align 8
  %3 = load ptr, ptr %2, align 8
  %4 = call noundef ptr @_ZNK17AbstractAssembler12code_sectionEv(ptr noundef nonnull align 8 dereferenceable(24) %3)
  %5 = call noundef ptr @_ZNK11CodeSection3endEv(ptr noundef nonnull align 8 dereferenceable(88) %4)
  ret ptr %5
}

; Function Attrs: mustprogress nounwind uwtable
define hidden noundef ptr @_ZN13StubGenerator23generate_floatToFloat16Ev(ptr noundef nonnull align 8 dereferenceable(24) %0) #1 align 2 {
  %2 = alloca ptr, align 8
  %3 = alloca %class.StubCodeMark, align 8
  %4 = alloca ptr, align 8
  %5 = alloca %class.Register, align 4
  %6 = alloca %class.XMMRegister, align 4
  %7 = alloca %class.XMMRegister, align 4
  store ptr %0, ptr %2, align 8
  %8 = load ptr, ptr %2, align 8
  call void @_ZN12StubCodeMarkC1EP17StubCodeGeneratorPKcS3_(ptr noundef nonnull align 8 dereferenceable(16) %3, ptr noundef %8, ptr noundef @.str, ptr noundef @.str.52)
  %9 = getelementptr inbounds %class.StubCodeGenerator, ptr %8, i32 0, i32 2
  %10 = load ptr, ptr %9, align 8
  %11 = call noundef ptr @_ZNK17AbstractAssembler2pcEv(ptr noundef nonnull align 8 dereferenceable(24) %10)
  store ptr %11, ptr %4, align 8
  %12 = getelementptr inbounds %class.StubCodeGenerator, ptr %8, i32 0, i32 2
  %13 = load ptr, ptr %12, align 8
  call void @llvm.memcpy.p0.p0.i64(ptr align 4 %5, ptr align 4 @_ZL3rax, i64 4, i1 false)
  call void @llvm.memcpy.p0.p0.i64(ptr align 4 %6, ptr align 4 @_ZL4xmm0, i64 4, i1 false)
  call void @llvm.memcpy.p0.p0.i64(ptr align 4 %7, ptr align 4 @_ZL4xmm1, i64 4, i1 false)
  %14 = getelementptr inbounds %class.Register, ptr %5, i32 0, i32 0
  %15 = load i32, ptr %14, align 4
  %16 = getelementptr inbounds %class.XMMRegister, ptr %6, i32 0, i32 0
  %17 = load i32, ptr %16, align 4
  %18 = getelementptr inbounds %class.XMMRegister, ptr %7, i32 0, i32 0
  %19 = load i32, ptr %18, align 4
  call void @_ZN14MacroAssembler12flt_to_flt16E8Register11XMMRegisterS1_(ptr noundef nonnull align 8 dereferenceable(40) %13, i32 %15, i32 %17, i32 %19)
  %20 = getelementptr inbounds %class.StubCodeGenerator, ptr %8, i32 0, i32 2
  %21 = load ptr, ptr %20, align 8
  call void @_ZN9Assembler3retEi(ptr noundef nonnull align 8 dereferenceable(40) %21, i32 noundef 0)
  %22 = load ptr, ptr %4, align 8
  call void @_ZN12StubCodeMarkD1Ev(ptr noundef nonnull align 8 dereferenceable(16) %3) #7
  ret ptr %22
}