; Function Attrs: mustprogress nounwind uwtable
define hidden noundef ptr @_ZN13StubGenerator23generate_floatToFloat16Ev(ptr noundef nonnull align 8 dereferenceable(24) %0) local_unnamed_addr #0 align 2 {
  %2 = alloca %class.StubCodeMark, align 8
  call void @_ZN12StubCodeMarkC1EP17StubCodeGeneratorPKcS3_(ptr noundef nonnull align 8 dereferenceable(16) %2, ptr noundef nonnull %0, ptr noundef nonnull @.str, ptr noundef nonnull @.str.52) #12
  %3 = getelementptr inbounds i8, ptr %0, i64 16
  %4 = load ptr, ptr %3, align 8
  %5 = getelementptr inbounds i8, ptr %4, i64 8
  %6 = load ptr, ptr %5, align 8
  %7 = getelementptr inbounds i8, ptr %6, i64 16
  %8 = load ptr, ptr %7, align 8
  call void @_ZN9Assembler9vcvtps2phE11XMMRegisterS0_ii(ptr noundef nonnull align 8 dereferenceable(40) %4, i32 1, i32 0, i32 noundef 4, i32 noundef 0) #12
  call void @_ZN9Assembler5movdlE8Register11XMMRegister(ptr noundef nonnull align 8 dereferenceable(40) %4, i32 0, i32 1) #12
  call void @_ZN9Assembler6movswlE8RegisterS0_(ptr noundef nonnull align 8 dereferenceable(40) %4, i32 0, i32 0) #12
  %9 = load ptr, ptr %3, align 8
  call void @_ZN9Assembler3retEi(ptr noundef nonnull align 8 dereferenceable(40) %9, i32 noundef 0) #12
  call void @_ZN12StubCodeMarkD1Ev(ptr noundef nonnull align 8 dereferenceable(16) %2) #12
  ret ptr %8
}